; Function Attrs: mustprogress uwtable
define hidden noundef zeroext i1 @_ZNK4cvc58internal6theory2bv7BBProof9hasBBTermENS0_12NodeTemplateILb0EEE(ptr nocapture noundef nonnull readonly align 8 dereferenceable(105) %this, ptr nocapture noundef readonly %atom) local_unnamed_addr #3 align 2 personality ptr @__gxx_personality_v0 {
entry:
  %agg.tmp = alloca %"class.cvc5::internal::NodeTemplate", align 8
  %d_bb = getelementptr inbounds i8, ptr %this, i64 16
  %0 = load ptr, ptr %d_bb, align 8
  %1 = load ptr, ptr %atom, align 8
  store ptr %1, ptr %agg.tmp, align 8
  %call2 = call noundef zeroext i1 @_ZNK4cvc58internal6theory2bv11TBitblasterINS0_12NodeTemplateILb1EEEE9hasBBTermENS4_ILb0EEE(ptr noundef nonnull align 8 dereferenceable(5976) %0, ptr noundef nonnull %agg.tmp)
  ret i1 %call2
}